target datalayout = "e-m:e-p270:32:32-p271:32:32-p272:64:64-i64:64-i128:128-f80:128-n8:16:32:64-S128"
target triple = "x86_64-pc-linux-gnu"

%struct.TupleDescData = type { i32, i32, i32, i32, ptr, [0 x %struct.CompactAttribute] }
%struct.CompactAttribute = type { i32, i16, i8, i8, i8, i8, i8, i8, i8 }
%struct.FormData_pg_attribute = type { i32, %struct.nameData, i32, i16, i16, i32, i16, i8, i8, i8, i8, i8, i8, i8, i8, i8, i8, i8, i16, i32 }
%struct.nameData = type { [64 x i8] }

; Function Attrs: inlinehint nounwind uwtable
define internal ptr @TupleDescAttr(ptr noundef %0, i32 noundef %1) #2 {
  %3 = alloca ptr, align 8
  %4 = alloca i32, align 4
  %5 = alloca ptr, align 8
  store ptr %0, ptr %3, align 8
  store i32 %1, ptr %4, align 4
  call void @llvm.lifetime.start.p0(i64 8, ptr %5) #8
  %6 = load ptr, ptr %3, align 8
  %7 = load ptr, ptr %3, align 8
  %8 = getelementptr inbounds nuw %struct.TupleDescData, ptr %7, i32 0, i32 0
  %9 = load i32, ptr %8, align 8
  %10 = sext i32 %9 to i64
  %11 = mul i64 %10, 16
  %12 = add i64 24, %11
  %13 = getelementptr inbounds nuw i8, ptr %6, i64 %12
  store ptr %13, ptr %5, align 8
  %14 = load ptr, ptr %5, align 8
  %15 = load i32, ptr %4, align 4
  %16 = sext i32 %15 to i64
  %17 = getelementptr inbounds %struct.FormData_pg_attribute, ptr %14, i64 %16
  call void @llvm.lifetime.end.p0(i64 8, ptr %5) #8
  ret ptr %17
}

; Function Attrs: nounwind uwtable
define dso_local void @TupleDescInitEntryCollation(ptr noundef %0, i16 noundef signext %1, i32 noundef %2) #0 {
  %4 = alloca ptr, align 8
  %5 = alloca i16, align 2
  %6 = alloca i32, align 4
  store ptr %0, ptr %4, align 8
  store i16 %1, ptr %5, align 2
  store i32 %2, ptr %6, align 4
  %7 = load i32, ptr %6, align 4
  %8 = load ptr, ptr %4, align 8
  %9 = load i16, ptr %5, align 2
  %10 = sext i16 %9 to i32
  %11 = sub i32 %10, 1
  %12 = call ptr @TupleDescAttr(ptr noundef %8, i32 noundef %11)
  %13 = getelementptr inbounds nuw %struct.FormData_pg_attribute, ptr %12, i32 0, i32 19
  store i32 %7, ptr %13, align 4
  ret void
}