; Function Attrs: mustprogress nofree norecurse nosync nounwind willreturn memory(argmem: readwrite) uwtable
define dso_local void @TupleDescInitEntryCollation(ptr noundef captures(none) %0, i16 noundef signext %1, i32 noundef %2) local_unnamed_addr #8 {
  %4 = sext i16 %1 to i64
  %5 = load i32, ptr %0, align 8
  %6 = sext i32 %5 to i64
  %7 = shl nsw i64 %6, 4
  %8 = getelementptr i8, ptr %0, i64 %7
  %.idx = mul nsw i64 %4, 100
  %9 = getelementptr i8, ptr %8, i64 20
  %10 = getelementptr i8, ptr %9, i64 %.idx
  store i32 %2, ptr %10, align 4
  ret void
}